target datalayout = "e-m:e-p270:32:32-p271:32:32-p272:64:64-i64:64-i128:128-f80:128-n8:16:32:64-S128"
target triple = "x86_64-pc-linux-gnu"

%class.symbol = type { ptr }
%class.ast = type { i32, i32, i32, i32 }
%class.expr = type { %class.ast }
%class.quantifier = type { %class.expr, i32, i32, ptr, ptr, i32, i32, i8, i8, %class.symbol, %class.symbol, i32, i32, [0 x i8] }

; Function Attrs: mustprogress nounwind uwtable
define linkonce_odr hidden noundef ptr @_ZNK10quantifier15get_no_patternsEv(ptr noundef nonnull align 8 dereferenceable(80) %0) #4 comdat align 2 {
  %2 = alloca ptr, align 8
  store ptr %0, ptr %2, align 8, !tbaa !137
  %3 = load ptr, ptr %2, align 8
  %4 = call noundef ptr @_ZNK10quantifier14get_decl_namesEv(ptr noundef nonnull align 8 dereferenceable(80) %3)
  %5 = getelementptr inbounds nuw %class.quantifier, ptr %3, i32 0, i32 2
  %6 = load i32, ptr %5, align 4, !tbaa !143
  %7 = zext i32 %6 to i64
  %8 = getelementptr inbounds nuw %class.symbol, ptr %4, i64 %7
  ret ptr %8
}

; Function Attrs: mustprogress nounwind uwtable
define linkonce_odr hidden noundef i32 @_ZNK10quantifier19get_num_no_patternsEv(ptr noundef nonnull align 8 dereferenceable(80) %0) #4 comdat align 2 {
  %2 = alloca ptr, align 8
  store ptr %0, ptr %2, align 8, !tbaa !137
  %3 = load ptr, ptr %2, align 8
  %4 = getelementptr inbounds nuw %class.quantifier, ptr %3, i32 0, i32 12
  %5 = load i32, ptr %4, align 4, !tbaa !151
  ret i32 %5
}

; Function Attrs: mustprogress nounwind uwtable
define linkonce_odr hidden noundef ptr @_ZNK10quantifier12get_patternsEv(ptr noundef nonnull align 8 dereferenceable(80) %0) #4 comdat align 2 {
  %2 = alloca ptr, align 8
  store ptr %0, ptr %2, align 8, !tbaa !137
  %3 = load ptr, ptr %2, align 8
  %4 = call noundef ptr @_ZNK10quantifier14get_decl_namesEv(ptr noundef nonnull align 8 dereferenceable(80) %3)
  %5 = getelementptr inbounds nuw %class.quantifier, ptr %3, i32 0, i32 2
  %6 = load i32, ptr %5, align 4, !tbaa !143
  %7 = zext i32 %6 to i64
  %8 = getelementptr inbounds nuw %class.symbol, ptr %4, i64 %7
  ret ptr %8
}

; Function Attrs: mustprogress nounwind uwtable
define linkonce_odr hidden noundef i32 @_ZNK10quantifier16get_num_patternsEv(ptr noundef nonnull align 8 dereferenceable(80) %0) #4 comdat align 2 {
  %2 = alloca ptr, align 8
  store ptr %0, ptr %2, align 8, !tbaa !137
  %3 = load ptr, ptr %2, align 8
  %4 = getelementptr inbounds nuw %class.quantifier, ptr %3, i32 0, i32 11
  %5 = load i32, ptr %4, align 8, !tbaa !150
  ret i32 %5
}

; Function Attrs: mustprogress nounwind uwtable
define linkonce_odr hidden noundef nonnull align 8 dereferenceable(8) ptr @_ZNK10quantifier8get_skidEv(ptr noundef nonnull align 8 dereferenceable(80) %0) #4 comdat align 2 {
  %2 = alloca ptr, align 8
  store ptr %0, ptr %2, align 8, !tbaa !137
  %3 = load ptr, ptr %2, align 8
  %4 = getelementptr inbounds nuw %class.quantifier, ptr %3, i32 0, i32 10
  ret ptr %4
}

; Function Attrs: mustprogress nounwind uwtable
define linkonce_odr hidden noundef nonnull align 8 dereferenceable(8) ptr @_ZNK10quantifier7get_qidEv(ptr noundef nonnull align 8 dereferenceable(80) %0) #4 comdat align 2 {
  %2 = alloca ptr, align 8
  store ptr %0, ptr %2, align 8, !tbaa !137
  %3 = load ptr, ptr %2, align 8
  %4 = getelementptr inbounds nuw %class.quantifier, ptr %3, i32 0, i32 9
  ret ptr %4
}

; Function Attrs: mustprogress nounwind uwtable
define linkonce_odr hidden noundef i32 @_ZNK10quantifier10get_weightEv(ptr noundef nonnull align 8 dereferenceable(80) %0) #4 comdat align 2 {
  %2 = alloca ptr, align 8
  store ptr %0, ptr %2, align 8, !tbaa !137
  %3 = load ptr, ptr %2, align 8
  %4 = getelementptr inbounds nuw %class.quantifier, ptr %3, i32 0, i32 6
  %5 = load i32, ptr %4, align 4, !tbaa !147
  ret i32 %5
}

; Function Attrs: mustprogress nounwind uwtable
define linkonce_odr hidden noundef ptr @_ZNK10quantifier14get_decl_namesEv(ptr noundef nonnull align 8 dereferenceable(80) %0) #4 comdat align 2 {
  %2 = alloca ptr, align 8
  store ptr %0, ptr %2, align 8, !tbaa !137
  %3 = load ptr, ptr %2, align 8
  %4 = call noundef ptr @_ZNK10quantifier14get_decl_sortsEv(ptr noundef nonnull align 8 dereferenceable(80) %3)
  %5 = getelementptr inbounds nuw %class.quantifier, ptr %3, i32 0, i32 2
  %6 = load i32, ptr %5, align 4, !tbaa !143
  %7 = zext i32 %6 to i64
  %8 = getelementptr inbounds nuw ptr, ptr %4, i64 %7
  ret ptr %8
}

; Function Attrs: mustprogress nounwind uwtable
define linkonce_odr hidden noundef ptr @_ZNK10quantifier14get_decl_sortsEv(ptr noundef nonnull align 8 dereferenceable(80) %0) #4 comdat align 2 {
  %2 = alloca ptr, align 8
  store ptr %0, ptr %2, align 8, !tbaa !137
  %3 = load ptr, ptr %2, align 8
  %4 = getelementptr inbounds nuw %class.quantifier, ptr %3, i32 0, i32 13
  %5 = getelementptr inbounds [0 x i8], ptr %4, i64 0, i64 0
  ret ptr %5
}

; Function Attrs: mustprogress nounwind uwtable
define linkonce_odr hidden noundef i32 @_ZNK10quantifier13get_num_declsEv(ptr noundef nonnull align 8 dereferenceable(80) %0) #4 comdat align 2 {
  %2 = alloca ptr, align 8
  store ptr %0, ptr %2, align 8, !tbaa !137
  %3 = load ptr, ptr %2, align 8
  %4 = getelementptr inbounds nuw %class.quantifier, ptr %3, i32 0, i32 2
  %5 = load i32, ptr %4, align 4, !tbaa !143
  ret i32 %5
}

; Function Attrs: mustprogress nounwind uwtable
define linkonce_odr hidden noundef i32 @_ZNK10quantifier8get_kindEv(ptr noundef nonnull align 8 dereferenceable(80) %0) #4 comdat align 2 {
  %2 = alloca ptr, align 8
  store ptr %0, ptr %2, align 8, !tbaa !137
  %3 = load ptr, ptr %2, align 8
  %4 = getelementptr inbounds nuw %class.quantifier, ptr %3, i32 0, i32 1
  %5 = load i32, ptr %4, align 8, !tbaa !141
  ret i32 %5
}

; Function Attrs: mustprogress nounwind uwtable
define linkonce_odr hidden noundef ptr @_ZNK10quantifier8get_exprEv(ptr noundef nonnull align 8 dereferenceable(80) %0) #4 comdat align 2 {
  %2 = alloca ptr, align 8
  store ptr %0, ptr %2, align 8, !tbaa !137
  %3 = load ptr, ptr %2, align 8
  %4 = getelementptr inbounds nuw %class.quantifier, ptr %3, i32 0, i32 3
  %5 = load ptr, ptr %4, align 8, !tbaa !144
  ret ptr %5
}

; Function Attrs: mustprogress uwtable
define hidden noundef ptr @_ZN11ast_manager17update_quantifierEP10quantifier15quantifier_kindP4expr(ptr noundef nonnull align 8 dereferenceable(976) %0, ptr noundef %1, i32 noundef %2, ptr noundef %3) #6 align 2 {
  %5 = alloca ptr, align 8
  %6 = alloca ptr, align 8
  %7 = alloca ptr, align 8
  %8 = alloca i32, align 4
  %9 = alloca ptr, align 8
  store ptr %0, ptr %6, align 8, !tbaa !21
  store ptr %1, ptr %7, align 8, !tbaa !137
  store i32 %2, ptr %8, align 4, !tbaa !139
  store ptr %3, ptr %9, align 8, !tbaa !132
  %10 = load ptr, ptr %6, align 8
  %11 = load ptr, ptr %7, align 8, !tbaa !137
  %12 = call noundef ptr @_ZNK10quantifier8get_exprEv(ptr noundef nonnull align 8 dereferenceable(80) %11)
  %13 = load ptr, ptr %9, align 8, !tbaa !132
  %14 = icmp eq ptr %12, %13
  br i1 %14, label %15, label %22

15:                                               ; preds = %4
  %16 = load ptr, ptr %7, align 8, !tbaa !137
  %17 = call noundef i32 @_ZNK10quantifier8get_kindEv(ptr noundef nonnull align 8 dereferenceable(80) %16)
  %18 = load i32, ptr %8, align 4, !tbaa !139
  %19 = icmp eq i32 %17, %18
  br i1 %19, label %20, label %22

20:                                               ; preds = %15
  %21 = load ptr, ptr %7, align 8, !tbaa !137
  store ptr %21, ptr %5, align 8
  br label %46

22:                                               ; preds = %15, %4
  %23 = load i32, ptr %8, align 4, !tbaa !139
  %24 = load ptr, ptr %7, align 8, !tbaa !137
  %25 = call noundef i32 @_ZNK10quantifier13get_num_declsEv(ptr noundef nonnull align 8 dereferenceable(80) %24)
  %26 = load ptr, ptr %7, align 8, !tbaa !137
  %27 = call noundef ptr @_ZNK10quantifier14get_decl_sortsEv(ptr noundef nonnull align 8 dereferenceable(80) %26)
  %28 = load ptr, ptr %7, align 8, !tbaa !137
  %29 = call noundef ptr @_ZNK10quantifier14get_decl_namesEv(ptr noundef nonnull align 8 dereferenceable(80) %28)
  %30 = load ptr, ptr %9, align 8, !tbaa !132
  %31 = load ptr, ptr %7, align 8, !tbaa !137
  %32 = call noundef i32 @_ZNK10quantifier10get_weightEv(ptr noundef nonnull align 8 dereferenceable(80) %31)
  %33 = load ptr, ptr %7, align 8, !tbaa !137
  %34 = call noundef nonnull align 8 dereferenceable(8) ptr @_ZNK10quantifier7get_qidEv(ptr noundef nonnull align 8 dereferenceable(80) %33)
  %35 = load ptr, ptr %7, align 8, !tbaa !137
  %36 = call noundef nonnull align 8 dereferenceable(8) ptr @_ZNK10quantifier8get_skidEv(ptr noundef nonnull align 8 dereferenceable(80) %35)
  %37 = load ptr, ptr %7, align 8, !tbaa !137
  %38 = call noundef i32 @_ZNK10quantifier16get_num_patternsEv(ptr noundef nonnull align 8 dereferenceable(80) %37)
  %39 = load ptr, ptr %7, align 8, !tbaa !137
  %40 = call noundef ptr @_ZNK10quantifier12get_patternsEv(ptr noundef nonnull align 8 dereferenceable(80) %39)
  %41 = load ptr, ptr %7, align 8, !tbaa !137
  %42 = call noundef i32 @_ZNK10quantifier19get_num_no_patternsEv(ptr noundef nonnull align 8 dereferenceable(80) %41)
  %43 = load ptr, ptr %7, align 8, !tbaa !137
  %44 = call noundef ptr @_ZNK10quantifier15get_no_patternsEv(ptr noundef nonnull align 8 dereferenceable(80) %43)
  %45 = call noundef ptr @_ZN11ast_manager13mk_quantifierE15quantifier_kindjPKP4sortPK6symbolP4expriRS6_SA_jPKS9_jSC_(ptr noundef nonnull align 8 dereferenceable(976) %10, i32 noundef %23, i32 noundef %25, ptr noundef %27, ptr noundef %29, ptr noundef %30, i32 noundef %32, ptr noundef nonnull align 8 dereferenceable(8) %34, ptr noundef nonnull align 8 dereferenceable(8) %36, i32 noundef %38, ptr noundef %40, i32 noundef %42, ptr noundef %44)
  store ptr %45, ptr %5, align 8
  br label %46

46:                                               ; preds = %22, %20
  %47 = load ptr, ptr %5, align 8
  ret ptr %47
}