; Function Attrs: mustprogress uwtable
define hidden noundef ptr @_ZN11ast_manager17update_quantifierEP10quantifier15quantifier_kindP4expr(ptr noundef nonnull align 8 dereferenceable(976) %0, ptr noundef %1, i32 noundef %2, ptr noundef %3) local_unnamed_addr #7 align 2 {
  %5 = getelementptr inbounds nuw i8, ptr %1, i64 24
  %6 = load ptr, ptr %5, align 8, !tbaa !131
  %7 = icmp eq ptr %6, %3
  br i1 %7, label %8, label %12

8:                                                ; preds = %4
  %9 = getelementptr inbounds nuw i8, ptr %1, i64 16
  %10 = load i32, ptr %9, align 8, !tbaa !127
  %11 = icmp eq i32 %10, %2
  br i1 %11, label %28, label %12

12:                                               ; preds = %8, %4
  %13 = getelementptr inbounds nuw i8, ptr %1, i64 20
  %14 = load i32, ptr %13, align 4, !tbaa !130
  %15 = getelementptr inbounds nuw i8, ptr %1, i64 80
  %16 = zext i32 %14 to i64
  %17 = getelementptr inbounds nuw ptr, ptr %15, i64 %16
  %18 = getelementptr inbounds nuw i8, ptr %1, i64 44
  %19 = load i32, ptr %18, align 4, !tbaa !134
  %20 = getelementptr inbounds nuw i8, ptr %1, i64 56
  %21 = getelementptr inbounds nuw i8, ptr %1, i64 64
  %22 = getelementptr inbounds nuw i8, ptr %1, i64 72
  %23 = load i32, ptr %22, align 8, !tbaa !137
  %24 = getelementptr inbounds nuw %class.symbol, ptr %17, i64 %16
  %25 = getelementptr inbounds nuw i8, ptr %1, i64 76
  %26 = load i32, ptr %25, align 4, !tbaa !138
  %27 = tail call noundef ptr @_ZN11ast_manager13mk_quantifierE15quantifier_kindjPKP4sortPK6symbolP4expriRS6_SA_jPKS9_jSC_(ptr noundef nonnull align 8 dereferenceable(976) %0, i32 noundef %2, i32 noundef %14, ptr noundef nonnull %15, ptr noundef nonnull %17, ptr noundef %3, i32 noundef %19, ptr noundef nonnull align 8 dereferenceable(8) %20, ptr noundef nonnull align 8 dereferenceable(8) %21, i32 noundef %23, ptr noundef nonnull %24, i32 noundef %26, ptr noundef nonnull %24)
  br label %28

28:                                               ; preds = %8, %12
  %.0 = phi ptr [ %27, %12 ], [ %1, %8 ]
  ret ptr %.0
}